; Function Attrs: nounwind uwtable
define noalias nonnull ptr @l_Lake_instMonadStoreNameStateRefT_x27NameMapOfMonadLiftTSTOfMonad___rarg___lambda__3(ptr noundef %0, ptr noundef %1, ptr noundef %2) #0 {
  %4 = tail call ptr @l_Lean_RBNode_insert___at_Lean_NameMap_insert___spec__1___rarg(ptr noundef %2, ptr noundef %0, ptr noundef %1) #3
  tail call void @lean_inc_heartbeat() #3
  %5 = tail call noalias ptr @mi_malloc_small(i64 noundef 24) #3
  %6 = icmp eq ptr %5, null
  br i1 %6, label %7, label %lean_alloc_ctor.exit

7:                                                ; preds = %3
  tail call void @lean_internal_panic_out_of_memory() #4
  unreachable

lean_alloc_ctor.exit:                             ; preds = %3
  %8 = getelementptr inbounds nuw i8, ptr %5, i64 4
  store i32 1, ptr %5, align 4, !tbaa !4
  store i32 131096, ptr %8, align 4
  %9 = getelementptr inbounds nuw i8, ptr %5, i64 8
  store ptr inttoptr (i64 1 to ptr), ptr %9, align 8, !tbaa !9
  %10 = getelementptr inbounds nuw i8, ptr %5, i64 16
  store ptr %4, ptr %10, align 8, !tbaa !9
  ret ptr %5
}